target datalayout = "e-m:e-p270:32:32-p271:32:32-p272:64:64-i64:64-i128:128-f80:128-n8:16:32:64-S128"
target triple = "x86_64-pc-linux-gnu"

%struct.strbuf = type { i64, i64, ptr }

@__const.print_path.buf = private unnamed_addr constant %struct.strbuf { i64 0, i64 0, ptr @strbuf_slopbuf }, align 8
@__const.print_path.realbuf = private unnamed_addr constant %struct.strbuf { i64 0, i64 0, ptr @strbuf_slopbuf }, align 8
@__const.print_path.prefixbuf = private unnamed_addr constant %struct.strbuf { i64 0, i64 0, ptr @strbuf_slopbuf }, align 8
@__const.print_path.buf.115 = private unnamed_addr constant %struct.strbuf { i64 0, i64 0, ptr @strbuf_slopbuf }, align 8
@__const.print_path.buf.116 = private unnamed_addr constant %struct.strbuf { i64 0, i64 0, ptr @strbuf_slopbuf }, align 8

; Function Attrs: inlinehint nounwind uwtable
define internal i32 @git_has_dos_drive_prefix(ptr noundef %0) #6 {
  %2 = alloca ptr, align 8
  store ptr %0, ptr %2, align 8, !tbaa !11
  ret i32 0
}

; Function Attrs: inlinehint nounwind uwtable
define internal i32 @git_is_dir_sep(i32 noundef %0) #6 {
  %2 = alloca i32, align 4
  store i32 %0, ptr %2, align 4, !tbaa !4
  %3 = load i32, ptr %2, align 4, !tbaa !4
  %4 = icmp eq i32 %3, 47
  %5 = zext i1 %4 to i32
  ret i32 %5
}

; Function Attrs: inlinehint nounwind uwtable
define internal i32 @is_absolute_path(ptr noundef %0) #6 {
  %2 = alloca ptr, align 8
  store ptr %0, ptr %2, align 8, !tbaa !11
  %3 = load ptr, ptr %2, align 8, !tbaa !11
  %4 = getelementptr inbounds i8, ptr %3, i64 0
  %5 = load i8, ptr %4, align 1, !tbaa !39
  %6 = sext i8 %5 to i32
  %7 = call i32 @git_is_dir_sep(i32 noundef %6)
  %8 = icmp ne i32 %7, 0
  br i1 %8, label %13, label %9

9:                                                ; preds = %1
  %10 = load ptr, ptr %2, align 8, !tbaa !11
  %11 = call i32 @git_has_dos_drive_prefix(ptr noundef %10)
  %12 = icmp ne i32 %11, 0
  br label %13

13:                                               ; preds = %9, %1
  %14 = phi i1 [ true, %1 ], [ %12, %9 ]
  %15 = zext i1 %14 to i32
  ret i32 %15
}

; Function Attrs: nounwind uwtable
define internal void @print_path(ptr noundef %0, ptr noundef %1, i32 noundef %2, i32 noundef %3) #0 {
  %5 = alloca ptr, align 8
  %6 = alloca ptr, align 8
  %7 = alloca i32, align 4
  %8 = alloca i32, align 4
  %9 = alloca ptr, align 8
  %10 = alloca %struct.strbuf, align 8
  %11 = alloca %struct.strbuf, align 8
  %12 = alloca %struct.strbuf, align 8
  %13 = alloca %struct.strbuf, align 8
  %14 = alloca %struct.strbuf, align 8
  store ptr %0, ptr %5, align 8, !tbaa !11
  store ptr %1, ptr %6, align 8, !tbaa !11
  store i32 %2, ptr %7, align 4, !tbaa !4
  store i32 %3, ptr %8, align 4, !tbaa !4
  call void @llvm.lifetime.start.p0(i64 8, ptr %9) #11
  store ptr null, ptr %9, align 8, !tbaa !11
  %15 = load ptr, ptr %6, align 8, !tbaa !11
  %16 = icmp ne ptr %15, null
  br i1 %16, label %25, label %17

17:                                               ; preds = %4
  %18 = load i32, ptr %7, align 4, !tbaa !4
  %19 = icmp ne i32 %18, 2
  br i1 %19, label %23, label %20

20:                                               ; preds = %17
  %21 = load i32, ptr %8, align 4, !tbaa !4
  %22 = icmp ne i32 %21, 1
  br i1 %22, label %23, label %25

23:                                               ; preds = %20, %17
  %24 = call ptr @xgetcwd()
  store ptr %24, ptr %9, align 8, !tbaa !11
  store ptr %24, ptr %6, align 8, !tbaa !11
  br label %25

25:                                               ; preds = %23, %20, %4
  %26 = load i32, ptr %7, align 4, !tbaa !4
  %27 = icmp eq i32 %26, 2
  br i1 %27, label %28, label %34

28:                                               ; preds = %25
  %29 = load i32, ptr %8, align 4, !tbaa !4
  %30 = icmp eq i32 %29, 3
  br i1 %30, label %31, label %34

31:                                               ; preds = %28
  %32 = load ptr, ptr %5, align 8, !tbaa !11
  %33 = call i32 @puts(ptr noundef %32)
  br label %85

34:                                               ; preds = %28, %25
  %35 = load i32, ptr %7, align 4, !tbaa !4
  %36 = icmp eq i32 %35, 0
  br i1 %36, label %43, label %37

37:                                               ; preds = %34
  %38 = load i32, ptr %7, align 4, !tbaa !4
  %39 = icmp eq i32 %38, 2
  br i1 %39, label %40, label %66

40:                                               ; preds = %37
  %41 = load i32, ptr %8, align 4, !tbaa !4
  %42 = icmp eq i32 %41, 0
  br i1 %42, label %43, label %66

43:                                               ; preds = %40, %34
  call void @llvm.lifetime.start.p0(i64 24, ptr %10) #11
  call void @llvm.memcpy.p0.p0.i64(ptr align 8 %10, ptr align 8 @__const.print_path.buf, i64 24, i1 false)
  call void @llvm.lifetime.start.p0(i64 24, ptr %11) #11
  call void @llvm.memcpy.p0.p0.i64(ptr align 8 %11, ptr align 8 @__const.print_path.realbuf, i64 24, i1 false)
  call void @llvm.lifetime.start.p0(i64 24, ptr %12) #11
  call void @llvm.memcpy.p0.p0.i64(ptr align 8 %12, ptr align 8 @__const.print_path.prefixbuf, i64 24, i1 false)
  %44 = load ptr, ptr %5, align 8, !tbaa !11
  %45 = call i32 @is_absolute_path(ptr noundef %44)
  %46 = icmp ne i32 %45, 0
  br i1 %46, label %52, label %47

47:                                               ; preds = %43
  %48 = load ptr, ptr %5, align 8, !tbaa !11
  %49 = call ptr @strbuf_realpath_forgiving(ptr noundef %11, ptr noundef %48, i32 noundef 1)
  %50 = getelementptr inbounds nuw %struct.strbuf, ptr %11, i32 0, i32 2
  %51 = load ptr, ptr %50, align 8, !tbaa !54
  store ptr %51, ptr %5, align 8, !tbaa !11
  br label %52

52:                                               ; preds = %47, %43
  %53 = load ptr, ptr %6, align 8, !tbaa !11
  %54 = call i32 @is_absolute_path(ptr noundef %53)
  %55 = icmp ne i32 %54, 0
  br i1 %55, label %61, label %56

56:                                               ; preds = %52
  %57 = load ptr, ptr %6, align 8, !tbaa !11
  %58 = call ptr @strbuf_realpath_forgiving(ptr noundef %12, ptr noundef %57, i32 noundef 1)
  %59 = getelementptr inbounds nuw %struct.strbuf, ptr %12, i32 0, i32 2
  %60 = load ptr, ptr %59, align 8, !tbaa !54
  store ptr %60, ptr %6, align 8, !tbaa !11
  br label %61

61:                                               ; preds = %56, %52
  %62 = load ptr, ptr %5, align 8, !tbaa !11
  %63 = load ptr, ptr %6, align 8, !tbaa !11
  %64 = call ptr @relative_path(ptr noundef %62, ptr noundef %63, ptr noundef %10)
  %65 = call i32 @puts(ptr noundef %64)
  call void @strbuf_release(ptr noundef %10)
  call void @strbuf_release(ptr noundef %11)
  call void @strbuf_release(ptr noundef %12)
  call void @llvm.lifetime.end.p0(i64 24, ptr %12) #11
  call void @llvm.lifetime.end.p0(i64 24, ptr %11) #11
  call void @llvm.lifetime.end.p0(i64 24, ptr %10) #11
  br label %84

66:                                               ; preds = %40, %37
  %67 = load i32, ptr %7, align 4, !tbaa !4
  %68 = icmp eq i32 %67, 2
  br i1 %68, label %69, label %77

69:                                               ; preds = %66
  %70 = load i32, ptr %8, align 4, !tbaa !4
  %71 = icmp eq i32 %70, 1
  br i1 %71, label %72, label %77

72:                                               ; preds = %69
  call void @llvm.lifetime.start.p0(i64 24, ptr %13) #11
  call void @llvm.memcpy.p0.p0.i64(ptr align 8 %13, ptr align 8 @__const.print_path.buf.115, i64 24, i1 false)
  %73 = load ptr, ptr %5, align 8, !tbaa !11
  %74 = load ptr, ptr %6, align 8, !tbaa !11
  %75 = call ptr @relative_path(ptr noundef %73, ptr noundef %74, ptr noundef %13)
  %76 = call i32 @puts(ptr noundef %75)
  call void @strbuf_release(ptr noundef %13)
  call void @llvm.lifetime.end.p0(i64 24, ptr %13) #11
  br label %83

77:                                               ; preds = %69, %66
  call void @llvm.lifetime.start.p0(i64 24, ptr %14) #11
  call void @llvm.memcpy.p0.p0.i64(ptr align 8 %14, ptr align 8 @__const.print_path.buf.116, i64 24, i1 false)
  %78 = load ptr, ptr %5, align 8, !tbaa !11
  %79 = call ptr @strbuf_realpath_forgiving(ptr noundef %14, ptr noundef %78, i32 noundef 1)
  %80 = getelementptr inbounds nuw %struct.strbuf, ptr %14, i32 0, i32 2
  %81 = load ptr, ptr %80, align 8, !tbaa !54
  %82 = call i32 @puts(ptr noundef %81)
  call void @strbuf_release(ptr noundef %14)
  call void @llvm.lifetime.end.p0(i64 24, ptr %14) #11
  br label %83

83:                                               ; preds = %77, %72
  br label %84

84:                                               ; preds = %83, %61
  br label %85

85:                                               ; preds = %84, %31
  %86 = load ptr, ptr %9, align 8, !tbaa !11
  call void @free(ptr noundef %86) #11
  call void @llvm.lifetime.end.p0(i64 8, ptr %9) #11
  ret void
}