; Function Attrs: nounwind uwtable
define internal fastcc void @print_path(ptr noundef %0, ptr noundef %1, i32 noundef range(i32 0, 3) %2, i32 noundef range(i32 0, 4) %3) unnamed_addr #0 {
  %5 = alloca %struct.strbuf, align 8
  %6 = alloca %struct.strbuf, align 8
  %7 = alloca %struct.strbuf, align 8
  %8 = alloca %struct.strbuf, align 8
  %9 = alloca %struct.strbuf, align 8
  %.not = icmp eq ptr %1, null
  br i1 %.not, label %10, label %15

10:                                               ; preds = %4
  %11 = icmp ne i32 %2, 2
  %12 = icmp ne i32 %3, 1
  %or.cond = or i1 %11, %12
  br i1 %or.cond, label %13, label %.thread

13:                                               ; preds = %10
  %14 = tail call ptr @xgetcwd() #19
  br label %15

15:                                               ; preds = %13, %4
  %.028 = phi ptr [ %1, %4 ], [ %14, %13 ]
  %.0 = phi ptr [ null, %4 ], [ %14, %13 ]
  %16 = icmp eq i32 %2, 2
  %17 = icmp eq i32 %3, 3
  %or.cond3 = and i1 %16, %17
  br i1 %or.cond3, label %18, label %.thread

18:                                               ; preds = %15
  %19 = tail call i32 @puts(ptr noundef nonnull dereferenceable(1) %0)
  br label %46

.thread:                                          ; preds = %10, %15
  %20 = phi i1 [ %16, %15 ], [ true, %10 ]
  %.039 = phi ptr [ %.0, %15 ], [ null, %10 ]
  %.02837 = phi ptr [ %.028, %15 ], [ null, %10 ]
  %21 = icmp eq i32 %2, 0
  %22 = icmp eq i32 %3, 0
  %or.cond5 = and i1 %22, %20
  %or.cond33 = or i1 %21, %or.cond5
  br i1 %or.cond33, label %23, label %36

23:                                               ; preds = %.thread
  call void @llvm.lifetime.start.p0(i64 24, ptr nonnull %5) #19
  call void @llvm.memcpy.p0.p0.i64(ptr noundef nonnull align 8 dereferenceable(24) %5, ptr noundef nonnull align 8 dereferenceable(24) @__const.print_path.buf.116, i64 24, i1 false)
  call void @llvm.lifetime.start.p0(i64 24, ptr nonnull %6) #19
  call void @llvm.memcpy.p0.p0.i64(ptr noundef nonnull align 8 dereferenceable(24) %6, ptr noundef nonnull align 8 dereferenceable(24) @__const.print_path.buf.116, i64 24, i1 false)
  call void @llvm.lifetime.start.p0(i64 24, ptr nonnull %7) #19
  call void @llvm.memcpy.p0.p0.i64(ptr noundef nonnull align 8 dereferenceable(24) %7, ptr noundef nonnull align 8 dereferenceable(24) @__const.print_path.buf.116, i64 24, i1 false)
  %.val = load i8, ptr %0, align 1, !tbaa !24
  %.not40 = icmp eq i8 %.val, 47
  br i1 %.not40, label %28, label %24

24:                                               ; preds = %23
  %25 = call ptr @strbuf_realpath_forgiving(ptr noundef nonnull %6, ptr noundef nonnull %0, i32 noundef 1) #19
  %26 = getelementptr inbounds nuw i8, ptr %6, i64 16
  %27 = load ptr, ptr %26, align 8, !tbaa !27
  br label %28

28:                                               ; preds = %24, %23
  %.027 = phi ptr [ %0, %23 ], [ %27, %24 ]
  %.028.val = load i8, ptr %.02837, align 1, !tbaa !24
  %.not41 = icmp eq i8 %.028.val, 47
  br i1 %.not41, label %33, label %29

29:                                               ; preds = %28
  %30 = call ptr @strbuf_realpath_forgiving(ptr noundef nonnull %7, ptr noundef nonnull %.02837, i32 noundef 1) #19
  %31 = getelementptr inbounds nuw i8, ptr %7, i64 16
  %32 = load ptr, ptr %31, align 8, !tbaa !27
  br label %33

33:                                               ; preds = %29, %28
  %.1 = phi ptr [ %.02837, %28 ], [ %32, %29 ]
  %34 = call ptr @relative_path(ptr noundef %.027, ptr noundef %.1, ptr noundef nonnull %5) #19
  %35 = call i32 @puts(ptr noundef nonnull dereferenceable(1) %34)
  call void @strbuf_release(ptr noundef nonnull %5) #19
  call void @strbuf_release(ptr noundef nonnull %6) #19
  call void @strbuf_release(ptr noundef nonnull %7) #19
  call void @llvm.lifetime.end.p0(i64 24, ptr nonnull %7) #19
  call void @llvm.lifetime.end.p0(i64 24, ptr nonnull %6) #19
  call void @llvm.lifetime.end.p0(i64 24, ptr nonnull %5) #19
  br label %46

36:                                               ; preds = %.thread
  %37 = icmp eq i32 %3, 1
  %or.cond7 = and i1 %37, %20
  br i1 %or.cond7, label %38, label %41

38:                                               ; preds = %36
  call void @llvm.lifetime.start.p0(i64 24, ptr nonnull %8) #19
  call void @llvm.memcpy.p0.p0.i64(ptr noundef nonnull align 8 dereferenceable(24) %8, ptr noundef nonnull align 8 dereferenceable(24) @__const.print_path.buf.116, i64 24, i1 false)
  %39 = call ptr @relative_path(ptr noundef %0, ptr noundef %.02837, ptr noundef nonnull %8) #19
  %40 = call i32 @puts(ptr noundef nonnull dereferenceable(1) %39)
  call void @strbuf_release(ptr noundef nonnull %8) #19
  call void @llvm.lifetime.end.p0(i64 24, ptr nonnull %8) #19
  br label %46

41:                                               ; preds = %36
  call void @llvm.lifetime.start.p0(i64 24, ptr nonnull %9) #19
  call void @llvm.memcpy.p0.p0.i64(ptr noundef nonnull align 8 dereferenceable(24) %9, ptr noundef nonnull align 8 dereferenceable(24) @__const.print_path.buf.116, i64 24, i1 false)
  %42 = call ptr @strbuf_realpath_forgiving(ptr noundef nonnull %9, ptr noundef %0, i32 noundef 1) #19
  %43 = getelementptr inbounds nuw i8, ptr %9, i64 16
  %44 = load ptr, ptr %43, align 8, !tbaa !27
  %45 = call i32 @puts(ptr noundef nonnull dereferenceable(1) %44)
  call void @strbuf_release(ptr noundef nonnull %9) #19
  call void @llvm.lifetime.end.p0(i64 24, ptr nonnull %9) #19
  br label %46

46:                                               ; preds = %33, %41, %38, %18
  %.038 = phi ptr [ %.039, %33 ], [ %.039, %41 ], [ %.039, %38 ], [ %.0, %18 ]
  call void @free(ptr noundef %.038) #19
  ret void
}